; Function Attrs: nounwind uwtable
define ptr @l_Lean_Environment_addConstAsync___lambda__2___boxed(ptr noundef %0, ptr noundef %1, ptr noundef %2) #1 {
  %4 = ptrtoint ptr %1 to i64
  %5 = lshr i64 %4, 1
  %6 = trunc i64 %5 to i8
  %7 = and i64 %4, 1
  %.not = icmp eq i64 %7, 0
  br i1 %.not, label %8, label %lean_dec.exit6

8:                                                ; preds = %3
  %9 = load i32, ptr %1, align 4, !tbaa !4
  %10 = icmp sgt i32 %9, 1
  br i1 %10, label %11, label %13, !prof !11

11:                                               ; preds = %8
  %12 = add nsw i32 %9, -1
  store i32 %12, ptr %1, align 4, !tbaa !4
  br label %lean_dec.exit6

13:                                               ; preds = %8
  %.not.i = icmp eq i32 %9, 0
  br i1 %.not.i, label %lean_dec.exit6, label %14

14:                                               ; preds = %13
  tail call void @lean_dec_ref_cold(ptr noundef nonnull %1) #10
  br label %lean_dec.exit6

lean_dec.exit6:                                   ; preds = %14, %13, %11, %3
  %15 = ptrtoint ptr %2 to i64
  %16 = and i64 %15, 1
  %.not.i9.i = icmp eq i64 %16, 0
  br i1 %.not.i9.i, label %20, label %17

17:                                               ; preds = %lean_dec.exit6
  %18 = lshr i64 %15, 1
  %19 = trunc i64 %18 to i32
  br label %lean_obj_tag.exit.i

20:                                               ; preds = %lean_dec.exit6
  %21 = getelementptr i8, ptr %2, i64 4
  %.val.i.i = load i32, ptr %21, align 4
  %22 = lshr i32 %.val.i.i, 24
  br label %lean_obj_tag.exit.i

lean_obj_tag.exit.i:                              ; preds = %20, %17
  %.0.i.i = phi i32 [ %19, %17 ], [ %22, %20 ]
  %23 = icmp eq i32 %.0.i.i, 0
  br i1 %23, label %24, label %26

24:                                               ; preds = %lean_obj_tag.exit.i
  %25 = tail call ptr @l___private_Lean_Environment_0__Lean_Environment_mkFallbackConstInfo(ptr noundef %0, i8 noundef zeroext %6)
  br label %l_Lean_Environment_addConstAsync___lambda__2.exit

26:                                               ; preds = %lean_obj_tag.exit.i
  %27 = ptrtoint ptr %0 to i64
  %28 = and i64 %27, 1
  %.not.i9 = icmp eq i64 %28, 0
  br i1 %.not.i9, label %29, label %lean_dec.exit.i

29:                                               ; preds = %26
  %30 = load i32, ptr %0, align 4, !tbaa !4
  %31 = icmp sgt i32 %30, 1
  br i1 %31, label %32, label %34, !prof !11

32:                                               ; preds = %29
  %33 = add nsw i32 %30, -1
  store i32 %33, ptr %0, align 4, !tbaa !4
  br label %lean_dec.exit.i

34:                                               ; preds = %29
  %.not.i.i = icmp eq i32 %30, 0
  br i1 %.not.i.i, label %lean_dec.exit.i, label %35

35:                                               ; preds = %34
  tail call void @lean_dec_ref_cold(ptr noundef nonnull %0) #10
  br label %lean_dec.exit.i

lean_dec.exit.i:                                  ; preds = %35, %34, %32, %26
  %36 = getelementptr inbounds nuw i8, ptr %2, i64 8
  %37 = load ptr, ptr %36, align 8, !tbaa !9
  %38 = getelementptr inbounds nuw i8, ptr %37, i64 8
  %39 = load ptr, ptr %38, align 8, !tbaa !9
  %40 = ptrtoint ptr %39 to i64
  %41 = and i64 %40, 1
  %.not12.i = icmp eq i64 %41, 0
  br i1 %.not12.i, label %42, label %l_Lean_Environment_addConstAsync___lambda__2.exit

42:                                               ; preds = %lean_dec.exit.i
  %.val.i10.i = load i32, ptr %39, align 4, !tbaa !4
  %43 = icmp sgt i32 %.val.i10.i, 0
  br i1 %43, label %44, label %46, !prof !11

44:                                               ; preds = %42
  %45 = add nuw i32 %.val.i10.i, 1
  store i32 %45, ptr %39, align 4, !tbaa !4
  br label %l_Lean_Environment_addConstAsync___lambda__2.exit

46:                                               ; preds = %42
  %.not.i11.i = icmp eq i32 %.val.i10.i, 0
  br i1 %.not.i11.i, label %l_Lean_Environment_addConstAsync___lambda__2.exit, label %47

47:                                               ; preds = %46
  tail call void @lean_inc_ref_cold(ptr noundef nonnull %39) #10
  br label %l_Lean_Environment_addConstAsync___lambda__2.exit

l_Lean_Environment_addConstAsync___lambda__2.exit: ; preds = %24, %lean_dec.exit.i, %44, %46, %47
  %.0.i = phi ptr [ %25, %24 ], [ %39, %47 ], [ %39, %46 ], [ %39, %44 ], [ %39, %lean_dec.exit.i ]
  br i1 %.not.i9.i, label %48, label %lean_dec.exit

48:                                               ; preds = %l_Lean_Environment_addConstAsync___lambda__2.exit
  %49 = load i32, ptr %2, align 4, !tbaa !4
  %50 = icmp sgt i32 %49, 1
  br i1 %50, label %51, label %53, !prof !11

51:                                               ; preds = %48
  %52 = add nsw i32 %49, -1
  store i32 %52, ptr %2, align 4, !tbaa !4
  br label %lean_dec.exit

53:                                               ; preds = %48
  %.not.i7 = icmp eq i32 %49, 0
  br i1 %.not.i7, label %lean_dec.exit, label %54

54:                                               ; preds = %53
  tail call void @lean_dec_ref_cold(ptr noundef nonnull %2) #10
  br label %lean_dec.exit

lean_dec.exit:                                    ; preds = %54, %53, %51, %l_Lean_Environment_addConstAsync___lambda__2.exit
  ret ptr %.0.i
}